; Function Attrs: mustprogress nounwind willreturn memory(argmem: readwrite, inaccessiblemem: readwrite) uwtable
define internal void @_ZL16two_aligned_freePv(ptr noundef %0) #11 {
  %.not = icmp eq ptr %0, null
  br i1 %.not, label %4, label %2

2:                                                ; preds = %1
  %3 = getelementptr inbounds i8, ptr %0, i64 -2
  tail call void @free(ptr noundef nonnull %3) #22
  br label %4

4:                                                ; preds = %1, %2
  ret void
}